; ModuleID = '39/742.c'
source_filename = "39/742.c"
target datalayout = "e-m:e-p270:32:32-p271:32:32-p272:64:64-i64:64-f80:128-n8:16:32:64-S128"
target triple = "x86_64-pc-linux-gnu"

%struct.student = type { [20 x i8], i32, i32, i8, i8, i32, i32 }

@.str = private unnamed_addr constant [3 x i8] c"%d\00", align 1
@.str.1 = private unnamed_addr constant [18 x i8] c"%s %d %d %c %c %d\00", align 1
@stu = common dso_local global [100 x %struct.student] zeroinitializer, align 16
@.str.2 = private unnamed_addr constant [4 x i8] c"%s\0A\00", align 1
@.str.3 = private unnamed_addr constant [4 x i8] c"%d\0A\00", align 1

; Function Attrs: noinline nounwind uwtable
define dso_local i32 @main() #0 {
  %1 = alloca i32, align 4
  %2 = alloca i32, align 4
  %3 = alloca i32, align 4
  %4 = alloca i32, align 4
  %5 = alloca i32, align 4
  store i32 0, i32* %1, align 4
  store i32 0, i32* %3, align 4
  store i32 0, i32* %4, align 4
  %6 = call i32 (i8*, ...) @__isoc99_scanf(i8* getelementptr inbounds ([3 x i8], [3 x i8]* @.str, i64 0, i64 0), i32* %5)
  store i32 0, i32* %2, align 4
  br label %7

7:                                                ; preds = %138, %0
  %8 = load i32, i32* %2, align 4
  %9 = load i32, i32* %5, align 4
  %10 = icmp slt i32 %8, %9
  br i1 %10, label %11, label %141

11:                                               ; preds = %7
  %12 = load i32, i32* %2, align 4
  %13 = sext i32 %12 to i64
  %14 = getelementptr inbounds [100 x %struct.student], [100 x %struct.student]* @stu, i64 0, i64 %13
  %15 = getelementptr inbounds %struct.student, %struct.student* %14, i32 0, i32 0
  %16 = getelementptr inbounds [20 x i8], [20 x i8]* %15, i64 0, i64 0
  %17 = load i32, i32* %2, align 4
  %18 = sext i32 %17 to i64
  %19 = getelementptr inbounds [100 x %struct.student], [100 x %struct.student]* @stu, i64 0, i64 %18
  %20 = getelementptr inbounds %struct.student, %struct.student* %19, i32 0, i32 1
  %21 = load i32, i32* %2, align 4
  %22 = sext i32 %21 to i64
  %23 = getelementptr inbounds [100 x %struct.student], [100 x %struct.student]* @stu, i64 0, i64 %22
  %24 = getelementptr inbounds %struct.student, %struct.student* %23, i32 0, i32 2
  %25 = load i32, i32* %2, align 4
  %26 = sext i32 %25 to i64
  %27 = getelementptr inbounds [100 x %struct.student], [100 x %struct.student]* @stu, i64 0, i64 %26
  %28 = getelementptr inbounds %struct.student, %struct.student* %27, i32 0, i32 3
  %29 = load i32, i32* %2, align 4
  %30 = sext i32 %29 to i64
  %31 = getelementptr inbounds [100 x %struct.student], [100 x %struct.student]* @stu, i64 0, i64 %30
  %32 = getelementptr inbounds %struct.student, %struct.student* %31, i32 0, i32 4
  %33 = load i32, i32* %2, align 4
  %34 = sext i32 %33 to i64
  %35 = getelementptr inbounds [100 x %struct.student], [100 x %struct.student]* @stu, i64 0, i64 %34
  %36 = getelementptr inbounds %struct.student, %struct.student* %35, i32 0, i32 5
  %37 = call i32 (i8*, ...) @__isoc99_scanf(i8* getelementptr inbounds ([18 x i8], [18 x i8]* @.str.1, i64 0, i64 0), i8* %16, i32* %20, i32* %24, i8* %28, i8* %32, i32* %36)
  %38 = load i32, i32* %2, align 4
  %39 = sext i32 %38 to i64
  %40 = getelementptr inbounds [100 x %struct.student], [100 x %struct.student]* @stu, i64 0, i64 %39
  %41 = getelementptr inbounds %struct.student, %struct.student* %40, i32 0, i32 1
  %42 = load i32, i32* %41, align 4
  %43 = icmp sgt i32 %42, 80
  br i1 %43, label %44, label %58

44:                                               ; preds = %11
  %45 = load i32, i32* %2, align 4
  %46 = sext i32 %45 to i64
  %47 = getelementptr inbounds [100 x %struct.student], [100 x %struct.student]* @stu, i64 0, i64 %46
  %48 = getelementptr inbounds %struct.student, %struct.student* %47, i32 0, i32 5
  %49 = load i32, i32* %48, align 8
  %50 = icmp sge i32 %49, 1
  br i1 %50, label %51, label %58

51:                                               ; preds = %44
  %52 = load i32, i32* %2, align 4
  %53 = sext i32 %52 to i64
  %54 = getelementptr inbounds [100 x %struct.student], [100 x %struct.student]* @stu, i64 0, i64 %53
  %55 = getelementptr inbounds %struct.student, %struct.student* %54, i32 0, i32 6
  %56 = load i32, i32* %55, align 4
  %57 = add nsw i32 %56, 8000
  store i32 %57, i32* %55, align 4
  br label %58

58:                                               ; preds = %51, %44, %11
  %59 = load i32, i32* %2, align 4
  %60 = sext i32 %59 to i64
  %61 = getelementptr inbounds [100 x %struct.student], [100 x %struct.student]* @stu, i64 0, i64 %60
  %62 = getelementptr inbounds %struct.student, %struct.student* %61, i32 0, i32 1
  %63 = load i32, i32* %62, align 4
  %64 = icmp sgt i32 %63, 85
  br i1 %64, label %65, label %79

65:                                               ; preds = %58
  %66 = load i32, i32* %2, align 4
  %67 = sext i32 %66 to i64
  %68 = getelementptr inbounds [100 x %struct.student], [100 x %struct.student]* @stu, i64 0, i64 %67
  %69 = getelementptr inbounds %struct.student, %struct.student* %68, i32 0, i32 2
  %70 = load i32, i32* %69, align 8
  %71 = icmp sgt i32 %70, 80
  br i1 %71, label %72, label %79

72:                                               ; preds = %65
  %73 = load i32, i32* %2, align 4
  %74 = sext i32 %73 to i64
  %75 = getelementptr inbounds [100 x %struct.student], [100 x %struct.student]* @stu, i64 0, i64 %74
  %76 = getelementptr inbounds %struct.student, %struct.student* %75, i32 0, i32 6
  %77 = load i32, i32* %76, align 4
  %78 = add nsw i32 %77, 4000
  store i32 %78, i32* %76, align 4
  br label %79

79:                                               ; preds = %72, %65, %58
  %80 = load i32, i32* %2, align 4
  %81 = sext i32 %80 to i64
  %82 = getelementptr inbounds [100 x %struct.student], [100 x %struct.student]* @stu, i64 0, i64 %81
  %83 = getelementptr inbounds %struct.student, %struct.student* %82, i32 0, i32 1
  %84 = load i32, i32* %83, align 4
  %85 = icmp sgt i32 %84, 90
  br i1 %85, label %86, label %93

86:                                               ; preds = %79
  %87 = load i32, i32* %2, align 4
  %88 = sext i32 %87 to i64
  %89 = getelementptr inbounds [100 x %struct.student], [100 x %struct.student]* @stu, i64 0, i64 %88
  %90 = getelementptr inbounds %struct.student, %struct.student* %89, i32 0, i32 6
  %91 = load i32, i32* %90, align 4
  %92 = add nsw i32 %91, 2000
  store i32 %92, i32* %90, align 4
  br label %93

93:                                               ; preds = %86, %79
  %94 = load i32, i32* %2, align 4
  %95 = sext i32 %94 to i64
  %96 = getelementptr inbounds [100 x %struct.student], [100 x %struct.student]* @stu, i64 0, i64 %95
  %97 = getelementptr inbounds %struct.student, %struct.student* %96, i32 0, i32 1
  %98 = load i32, i32* %97, align 4
  %99 = icmp sgt i32 %98, 85
  br i1 %99, label %100, label %115

100:                                              ; preds = %93
  %101 = load i32, i32* %2, align 4
  %102 = sext i32 %101 to i64
  %103 = getelementptr inbounds [100 x %struct.student], [100 x %struct.student]* @stu, i64 0, i64 %102
  %104 = getelementptr inbounds %struct.student, %struct.student* %103, i32 0, i32 4
  %105 = load i8, i8* %104, align 1
  %106 = sext i8 %105 to i32
  %107 = icmp eq i32 %106, 89
  br i1 %107, label %108, label %115

108:                                              ; preds = %100
  %109 = load i32, i32* %2, align 4
  %110 = sext i32 %109 to i64
  %111 = getelementptr inbounds [100 x %struct.student], [100 x %struct.student]* @stu, i64 0, i64 %110
  %112 = getelementptr inbounds %struct.student, %struct.student* %111, i32 0, i32 6
  %113 = load i32, i32* %112, align 4
  %114 = add nsw i32 %113, 1000
  store i32 %114, i32* %112, align 4
  br label %115

115:                                              ; preds = %108, %100, %93
  %116 = load i32, i32* %2, align 4
  %117 = sext i32 %116 to i64
  %118 = getelementptr inbounds [100 x %struct.student], [100 x %struct.student]* @stu, i64 0, i64 %117
  %119 = getelementptr inbounds %struct.student, %struct.student* %118, i32 0, i32 2
  %120 = load i32, i32* %119, align 8
  %121 = icmp sgt i32 %120, 80
  br i1 %121, label %122, label %137

122:                                              ; preds = %115
  %123 = load i32, i32* %2, align 4
  %124 = sext i32 %123 to i64
  %125 = getelementptr inbounds [100 x %struct.student], [100 x %struct.student]* @stu, i64 0, i64 %124
  %126 = getelementptr inbounds %struct.student, %struct.student* %125, i32 0, i32 3
  %127 = load i8, i8* %126, align 4
  %128 = sext i8 %127 to i32
  %129 = icmp eq i32 %128, 89
  br i1 %129, label %130, label %137

130:                                              ; preds = %122
  %131 = load i32, i32* %2, align 4
  %132 = sext i32 %131 to i64
  %133 = getelementptr inbounds [100 x %struct.student], [100 x %struct.student]* @stu, i64 0, i64 %132
  %134 = getelementptr inbounds %struct.student, %struct.student* %133, i32 0, i32 6
  %135 = load i32, i32* %134, align 4
  %136 = add nsw i32 %135, 850
  store i32 %136, i32* %134, align 4
  br label %137

137:                                              ; preds = %130, %122, %115
  br label %138

138:                                              ; preds = %137
  %139 = load i32, i32* %2, align 4
  %140 = add nsw i32 %139, 1
  store i32 %140, i32* %2, align 4
  br label %7

141:                                              ; preds = %7
  store i32 0, i32* %2, align 4
  br label %142

142:                                              ; preds = %154, %141
  %143 = load i32, i32* %2, align 4
  %144 = load i32, i32* %5, align 4
  %145 = icmp slt i32 %143, %144
  br i1 %145, label %146, label %157

146:                                              ; preds = %142
  %147 = load i32, i32* %4, align 4
  %148 = load i32, i32* %2, align 4
  %149 = sext i32 %148 to i64
  %150 = getelementptr inbounds [100 x %struct.student], [100 x %struct.student]* @stu, i64 0, i64 %149
  %151 = getelementptr inbounds %struct.student, %struct.student* %150, i32 0, i32 6
  %152 = load i32, i32* %151, align 4
  %153 = add nsw i32 %147, %152
  store i32 %153, i32* %4, align 4
  br label %154

154:                                              ; preds = %146
  %155 = load i32, i32* %2, align 4
  %156 = add nsw i32 %155, 1
  store i32 %156, i32* %2, align 4
  br label %142

157:                                              ; preds = %142
  store i32 1, i32* %2, align 4
  br label %158

158:                                              ; preds = %177, %157
  %159 = load i32, i32* %2, align 4
  %160 = load i32, i32* %5, align 4
  %161 = icmp slt i32 %159, %160
  br i1 %161, label %162, label %180

162:                                              ; preds = %158
  %163 = load i32, i32* %3, align 4
  %164 = sext i32 %163 to i64
  %165 = getelementptr inbounds [100 x %struct.student], [100 x %struct.student]* @stu, i64 0, i64 %164
  %166 = getelementptr inbounds %struct.student, %struct.student* %165, i32 0, i32 6
  %167 = load i32, i32* %166, align 4
  %168 = load i32, i32* %2, align 4
  %169 = sext i32 %168 to i64
  %170 = getelementptr inbounds [100 x %struct.student], [100 x %struct.student]* @stu, i64 0, i64 %169
  %171 = getelementptr inbounds %struct.student, %struct.student* %170, i32 0, i32 6
  %172 = load i32, i32* %171, align 4
  %173 = icmp slt i32 %167, %172
  br i1 %173, label %174, label %176

174:                                              ; preds = %162
  %175 = load i32, i32* %2, align 4
  store i32 %175, i32* %3, align 4
  br label %176

176:                                              ; preds = %174, %162
  br label %177

177:                                              ; preds = %176
  %178 = load i32, i32* %2, align 4
  %179 = add nsw i32 %178, 1
  store i32 %179, i32* %2, align 4
  br label %158

180:                                              ; preds = %158
  %181 = load i32, i32* %3, align 4
  %182 = sext i32 %181 to i64
  %183 = getelementptr inbounds [100 x %struct.student], [100 x %struct.student]* @stu, i64 0, i64 %182
  %184 = getelementptr inbounds %struct.student, %struct.student* %183, i32 0, i32 0
  %185 = getelementptr inbounds [20 x i8], [20 x i8]* %184, i64 0, i64 0
  %186 = call i32 (i8*, ...) @printf(i8* getelementptr inbounds ([4 x i8], [4 x i8]* @.str.2, i64 0, i64 0), i8* %185)
  %187 = load i32, i32* %3, align 4
  %188 = sext i32 %187 to i64
  %189 = getelementptr inbounds [100 x %struct.student], [100 x %struct.student]* @stu, i64 0, i64 %188
  %190 = getelementptr inbounds %struct.student, %struct.student* %189, i32 0, i32 6
  %191 = load i32, i32* %190, align 4
  %192 = call i32 (i8*, ...) @printf(i8* getelementptr inbounds ([4 x i8], [4 x i8]* @.str.3, i64 0, i64 0), i32 %191)
  %193 = load i32, i32* %4, align 4
  %194 = call i32 (i8*, ...) @printf(i8* getelementptr inbounds ([3 x i8], [3 x i8]* @.str, i64 0, i64 0), i32 %193)
  ret i32 0
}

declare dso_local i32 @__isoc99_scanf(i8*, ...) #1

declare dso_local i32 @printf(i8*, ...) #1


!llvm.module.flags = !{!0}
!llvm.ident = !{!1}

!0 = !{i32 1, !"wchar_size", i32 4}
!1 = !{!"clang version 10.0.0-4ubuntu1 "}
